ccopy_reg
_reconstructor
p0
(cdedupe.datamodel
DataModel
p1
c__builtin__
dict
p2
(dp3
S'fields'
p4
(lp5
g0
(cdedupe.variables.string
StringType
p6
c__builtin__
object
p7
Ntp8
Rp9
(dp10
S'name'
p11
S'(estab_name: String)'
p12
sS'comparator'
p13
caffinegap.affinegap
normalizedAffineGapDistance
p14
sS'weight'
p15
F-3.438226010513034
sS'field'
p16
S'estab_name'
p17
sS'has_missing'
p18
I00
sS'predicates'
p19
(lp20
g0
(cdedupe.predicates
SimplePredicate
p21
g7
Ntp22
Rp23
(dp24
S'__name__'
p25
S'(wholeFieldPredicate, estab_name)'
p26
sS'func'
p27
cdedupe.predicates
wholeFieldPredicate
p28
sg16
g17
sbag0
(g21
g7
Ntp29
Rp30
(dp31
g25
S'(firstTokenPredicate, estab_name)'
p32
sg27
cdedupe.predicates
firstTokenPredicate
p33
sg16
g17
sbag0
(g21
g7
Ntp34
Rp35
(dp36
g25
S'(commonIntegerPredicate, estab_name)'
p37
sg27
cdedupe.predicates
commonIntegerPredicate
p38
sg16
g17
sbag0
(g21
g7
Ntp39
Rp40
(dp41
g25
S'(nearIntegersPredicate, estab_name)'
p42
sg27
cdedupe.predicates
nearIntegersPredicate
p43
sg16
g17
sbag0
(g21
g7
Ntp44
Rp45
(dp46
g25
S'(firstIntegerPredicate, estab_name)'
p47
sg27
cdedupe.predicates
firstIntegerPredicate
p48
sg16
g17
sbag0
(g21
g7
Ntp49
Rp50
(dp51
g25
S'(sameThreeCharStartPredicate, estab_name)'
p52
sg27
cdedupe.predicates
sameThreeCharStartPredicate
p53
sg16
g17
sbag0
(g21
g7
Ntp54
Rp55
(dp56
g25
S'(sameFiveCharStartPredicate, estab_name)'
p57
sg27
cdedupe.predicates
sameFiveCharStartPredicate
p58
sg16
g17
sbag0
(g21
g7
Ntp59
Rp60
(dp61
g25
S'(sameSevenCharStartPredicate, estab_name)'
p62
sg27
cdedupe.predicates
sameSevenCharStartPredicate
p63
sg16
g17
sbag0
(g21
g7
Ntp64
Rp65
(dp66
g25
S'(commonTwoTokens, estab_name)'
p67
sg27
cdedupe.predicates
commonTwoTokens
p68
sg16
g17
sbag0
(g21
g7
Ntp69
Rp70
(dp71
g25
S'(commonThreeTokens, estab_name)'
p72
sg27
cdedupe.predicates
commonThreeTokens
p73
sg16
g17
sbag0
(g21
g7
Ntp74
Rp75
(dp76
g25
S'(fingerprint, estab_name)'
p77
sg27
cdedupe.predicates
fingerprint
p78
sg16
g17
sbag0
(g21
g7
Ntp79
Rp80
(dp81
g25
S'(oneGramFingerprint, estab_name)'
p82
sg27
cdedupe.predicates
oneGramFingerprint
p83
sg16
g17
sbag0
(g21
g7
Ntp84
Rp85
(dp86
g25
S'(twoGramFingerprint, estab_name)'
p87
sg27
cdedupe.predicates
twoGramFingerprint
p88
sg16
g17
sbag0
(g21
g7
Ntp89
Rp90
(dp91
g25
S'(sortedAcronym, estab_name)'
p92
sg27
cdedupe.predicates
sortedAcronym
p93
sg16
g17
sbag0
(g21
g7
Ntp94
Rp95
(dp96
g25
S'(commonFourGram, estab_name)'
p97
sg27
cdedupe.predicates
commonFourGram
p98
sg16
g17
sbag0
(g21
g7
Ntp99
Rp100
(dp101
g25
S'(commonSixGram, estab_name)'
p102
sg27
cdedupe.predicates
commonSixGram
p103
sg16
g17
sbag0
(g21
g7
Ntp104
Rp105
(dp106
g25
S'(tokenFieldPredicate, estab_name)'
p107
sg27
cdedupe.predicates
tokenFieldPredicate
p108
sg16
g17
sbag0
(g21
g7
Ntp109
Rp110
(dp111
g25
S'(suffixArray, estab_name)'
p112
sg27
cdedupe.predicates
suffixArray
p113
sg16
g17
sbag0
(g21
g7
Ntp114
Rp115
(dp116
g25
S'(doubleMetaphone, estab_name)'
p117
sg27
cdedupe.predicates
doubleMetaphone
p118
sg16
g17
sbag0
(g21
g7
Ntp119
Rp120
(dp121
g25
S'(metaphoneToken, estab_name)'
p122
sg27
cdedupe.predicates
metaphoneToken
p123
sg16
g17
sbag0
(cdedupe.predicates
TfidfNGramCanopyPredicate
p124
g7
Ntp125
Rp126
(dp127
S'threshold'
p128
F0.2
sg25
S'(0.2, estab_name)'
p129
sg16
g17
sbag0
(g124
g7
Ntp130
Rp131
(dp132
g128
F0.4
sg25
S'(0.4, estab_name)'
p133
sg16
g17
sbag0
(g124
g7
Ntp134
Rp135
(dp136
g128
F0.6
sg25
S'(0.6, estab_name)'
p137
sg16
g17
sbag0
(g124
g7
Ntp138
Rp139
(dp140
g128
F0.8
sg25
S'(0.8, estab_name)'
p141
sg16
g17
sbag0
(cdedupe.predicates
TfidfNGramSearchPredicate
p142
g7
Ntp143
Rp144
(dp145
g128
F0.2
sg25
S'(0.2, estab_name)'
p146
sg16
g17
sbag0
(g142
g7
Ntp147
Rp148
(dp149
g128
F0.4
sg25
S'(0.4, estab_name)'
p150
sg16
g17
sbag0
(g142
g7
Ntp151
Rp152
(dp153
g128
F0.6
sg25
S'(0.6, estab_name)'
p154
sg16
g17
sbag0
(g142
g7
Ntp155
Rp156
(dp157
g128
F0.8
sg25
S'(0.8, estab_name)'
p158
sg16
g17
sbag0
(cdedupe.predicates
TfidfTextCanopyPredicate
p159
g7
Ntp160
Rp161
(dp162
g128
F0.2
sg25
S'(0.2, estab_name)'
p163
sg16
g17
sbag0
(g159
g7
Ntp164
Rp165
(dp166
g128
F0.4
sg25
S'(0.4, estab_name)'
p167
sg16
g17
sbag0
(g159
g7
Ntp168
Rp169
(dp170
g128
F0.6
sg25
S'(0.6, estab_name)'
p171
sg16
g17
sbag0
(g159
g7
Ntp172
Rp173
(dp174
g128
F0.8
sg25
S'(0.8, estab_name)'
p175
sg16
g17
sbag0
(cdedupe.predicates
TfidfTextSearchPredicate
p176
g7
Ntp177
Rp178
(dp179
g128
F0.2
sg25
S'(0.2, estab_name)'
p180
sg16
g17
sbag0
(g176
g7
Ntp181
Rp182
(dp183
g128
F0.4
sg25
S'(0.4, estab_name)'
p184
sg16
g17
sbag0
(g176
g7
Ntp185
Rp186
(dp187
g128
F0.6
sg25
S'(0.6, estab_name)'
p188
sg16
g17
sbag0
(g176
g7
Ntp189
Rp190
(dp191
g128
F0.8
sg25
S'(0.8, estab_name)'
p192
sg16
g17
sbasbag0
(g6
g7
Ntp193
Rp194
(dp195
g11
S'(site_state: String)'
p196
sg13
g14
sg15
F-0.3532028669038594
sg16
S'site_state'
p197
sg18
I00
sg19
(lp198
g0
(g21
g7
Ntp199
Rp200
(dp201
g25
S'(wholeFieldPredicate, site_state)'
p202
sg27
g28
sg16
g197
sbag0
(g21
g7
Ntp203
Rp204
(dp205
g25
S'(firstTokenPredicate, site_state)'
p206
sg27
g33
sg16
g197
sbag0
(g21
g7
Ntp207
Rp208
(dp209
g25
S'(commonIntegerPredicate, site_state)'
p210
sg27
g38
sg16
g197
sbag0
(g21
g7
Ntp211
Rp212
(dp213
g25
S'(nearIntegersPredicate, site_state)'
p214
sg27
g43
sg16
g197
sbag0
(g21
g7
Ntp215
Rp216
(dp217
g25
S'(firstIntegerPredicate, site_state)'
p218
sg27
g48
sg16
g197
sbag0
(g21
g7
Ntp219
Rp220
(dp221
g25
S'(sameThreeCharStartPredicate, site_state)'
p222
sg27
g53
sg16
g197
sbag0
(g21
g7
Ntp223
Rp224
(dp225
g25
S'(sameFiveCharStartPredicate, site_state)'
p226
sg27
g58
sg16
g197
sbag0
(g21
g7
Ntp227
Rp228
(dp229
g25
S'(sameSevenCharStartPredicate, site_state)'
p230
sg27
g63
sg16
g197
sbag0
(g21
g7
Ntp231
Rp232
(dp233
g25
S'(commonTwoTokens, site_state)'
p234
sg27
g68
sg16
g197
sbag0
(g21
g7
Ntp235
Rp236
(dp237
g25
S'(commonThreeTokens, site_state)'
p238
sg27
g73
sg16
g197
sbag0
(g21
g7
Ntp239
Rp240
(dp241
g25
S'(fingerprint, site_state)'
p242
sg27
g78
sg16
g197
sbag0
(g21
g7
Ntp243
Rp244
(dp245
g25
S'(oneGramFingerprint, site_state)'
p246
sg27
g83
sg16
g197
sbag0
(g21
g7
Ntp247
Rp248
(dp249
g25
S'(twoGramFingerprint, site_state)'
p250
sg27
g88
sg16
g197
sbag0
(g21
g7
Ntp251
Rp252
(dp253
g25
S'(sortedAcronym, site_state)'
p254
sg27
g93
sg16
g197
sbag0
(g21
g7
Ntp255
Rp256
(dp257
g25
S'(commonFourGram, site_state)'
p258
sg27
g98
sg16
g197
sbag0
(g21
g7
Ntp259
Rp260
(dp261
g25
S'(commonSixGram, site_state)'
p262
sg27
g103
sg16
g197
sbag0
(g21
g7
Ntp263
Rp264
(dp265
g25
S'(tokenFieldPredicate, site_state)'
p266
sg27
g108
sg16
g197
sbag0
(g21
g7
Ntp267
Rp268
(dp269
g25
S'(suffixArray, site_state)'
p270
sg27
g113
sg16
g197
sbag0
(g21
g7
Ntp271
Rp272
(dp273
g25
S'(doubleMetaphone, site_state)'
p274
sg27
g118
sg16
g197
sbag0
(g21
g7
Ntp275
Rp276
(dp277
g25
S'(metaphoneToken, site_state)'
p278
sg27
g123
sg16
g197
sbag0
(g124
g7
Ntp279
Rp280
(dp281
g128
F0.2
sg25
S'(0.2, site_state)'
p282
sg16
g197
sbag0
(g124
g7
Ntp283
Rp284
(dp285
g128
F0.4
sg25
S'(0.4, site_state)'
p286
sg16
g197
sbag0
(g124
g7
Ntp287
Rp288
(dp289
g128
F0.6
sg25
S'(0.6, site_state)'
p290
sg16
g197
sbag0
(g124
g7
Ntp291
Rp292
(dp293
g128
F0.8
sg25
S'(0.8, site_state)'
p294
sg16
g197
sbag0
(g142
g7
Ntp295
Rp296
(dp297
g128
F0.2
sg25
S'(0.2, site_state)'
p298
sg16
g197
sbag0
(g142
g7
Ntp299
Rp300
(dp301
g128
F0.4
sg25
S'(0.4, site_state)'
p302
sg16
g197
sbag0
(g142
g7
Ntp303
Rp304
(dp305
g128
F0.6
sg25
S'(0.6, site_state)'
p306
sg16
g197
sbag0
(g142
g7
Ntp307
Rp308
(dp309
g128
F0.8
sg25
S'(0.8, site_state)'
p310
sg16
g197
sbag0
(g159
g7
Ntp311
Rp312
(dp313
g128
F0.2
sg25
S'(0.2, site_state)'
p314
sg16
g197
sbag0
(g159
g7
Ntp315
Rp316
(dp317
g128
F0.4
sg25
S'(0.4, site_state)'
p318
sg16
g197
sbag0
(g159
g7
Ntp319
Rp320
(dp321
g128
F0.6
sg25
S'(0.6, site_state)'
p322
sg16
g197
sbag0
(g159
g7
Ntp323
Rp324
(dp325
g128
F0.8
sg25
S'(0.8, site_state)'
p326
sg16
g197
sbag0
(g176
g7
Ntp327
Rp328
(dp329
g128
F0.2
sg25
S'(0.2, site_state)'
p330
sg16
g197
sbag0
(g176
g7
Ntp331
Rp332
(dp333
g128
F0.4
sg25
S'(0.4, site_state)'
p334
sg16
g197
sbag0
(g176
g7
Ntp335
Rp336
(dp337
g128
F0.6
sg25
S'(0.6, site_state)'
p338
sg16
g197
sbag0
(g176
g7
Ntp339
Rp340
(dp341
g128
F0.8
sg25
S'(0.8, site_state)'
p342
sg16
g197
sbasbag0
(cdedupe.variables.exact
ExactType
p343
g7
Ntp344
Rp345
(dp346
g19
(lp347
g0
(g21
g7
Ntp348
Rp349
(dp350
g25
S'(wholeFieldPredicate, site_zip)'
p351
sg27
g28
sg16
S'site_zip'
p352
sbag0
(cdedupe.predicates
ExistsPredicate
p353
g7
Ntp354
Rp355
(dp356
g25
S'(Exists, site_zip)'
p357
sg16
g352
sbasg16
g352
sg11
S'(site_zip: Exact)'
p358
sg15
F0.09625429384585538
sg18
I01
sbag0
(g343
g7
Ntp359
Rp360
(dp361
g19
(lp362
g0
(g21
g7
Ntp363
Rp364
(dp365
g25
S'(wholeFieldPredicate, sic_code)'
p366
sg27
g28
sg16
S'sic_code'
p367
sbag0
(g353
g7
Ntp368
Rp369
(dp370
g25
S'(Exists, sic_code)'
p371
sg16
g367
sbasg16
g367
sg11
S'(sic_code: Exact)'
p372
sg15
F0.994728604710524
sg18
I01
sbag0
(cdedupe.variables.base
MissingDataType
p373
g7
Ntp374
Rp375
(dp376
g18
I00
sg11
S'((site_zip: Exact): Not Missing)'
p377
sg15
F-6.2739977446005005e-06
sbag0
(g373
g7
Ntp378
Rp379
(dp380
g18
I00
sg11
S'((sic_code: Exact): Not Missing)'
p381
sg15
F-6.2739977446005005e-06
sbasS'bias'
p382
cnumpy.core.multiarray
scalar
p383
(cnumpy
dtype
p384
(S'f8'
p385
I0
I1
tp386
Rp387
(I3
S'<'
p388
NNNI-1
I-1
I0
tp389
bS'\x1ecvM\xfcB\x12@'
p390
tp391
Rp392
stp393
Rp394
(dp395
S'primary_fields'
p396
(lp397
g9
ag194
ag345
ag360
asS'n_fields'
p398
I6
sS'derived_start'
p399
I4
sb.(ccopy_reg
_reconstructor
p0
(cdedupe.predicates
CompoundPredicate
p1
c__builtin__
object
p2
Ntp3
Rp4
(dp5
S'predicates'
p6
(g0
(cdedupe.predicates
TfidfTextCanopyPredicate
p7
g2
Ntp8
Rp9
(dp10
S'threshold'
p11
F0.8
sS'__name__'
p12
S'(0.8, estab_name)'
p13
sS'field'
p14
S'estab_name'
p15
sbg0
(cdedupe.predicates
TfidfNGramCanopyPredicate
p16
g2
Ntp17
Rp18
(dp19
g11
F0.6
sg12
S'(0.6, estab_name)'
p20
sg14
g15
sbtp21
sg12
V(TfidfTextCanopyPredicate: (0.8, estab_name), TfidfNGramCanopyPredicate: (0.6, estab_name))
p22
sbg0
(g1
g2
Ntp23
Rp24
(dp25
g6
(g0
(g7
g2
Ntp26
Rp27
(dp28
g11
F0.4
sg12
S'(0.4, estab_name)'
p29
sg14
g15
sbg0
(cdedupe.predicates
SimplePredicate
p30
g2
Ntp31
Rp32
(dp33
g12
S'(wholeFieldPredicate, site_zip)'
p34
sS'func'
p35
cdedupe.predicates
wholeFieldPredicate
p36
sg14
S'site_zip'
p37
sbtp38
sg12
V(TfidfTextCanopyPredicate: (0.4, estab_name), SimplePredicate: (wholeFieldPredicate, site_zip))
p39
sbg0
(g1
g2
Ntp40
Rp41
(dp42
g6
(g0
(g30
g2
Ntp43
Rp44
(dp45
g12
S'(sameSevenCharStartPredicate, estab_name)'
p46
sg35
cdedupe.predicates
sameSevenCharStartPredicate
p47
sg14
g15
sbg0
(g30
g2
Ntp48
Rp49
(dp50
g12
S'(doubleMetaphone, estab_name)'
p51
sg35
cdedupe.predicates
doubleMetaphone
p52
sg14
g15
sbtp53
sg12
V(SimplePredicate: (sameSevenCharStartPredicate, estab_name), SimplePredicate: (doubleMetaphone, estab_name))
p54
sbg0
(g1
g2
Ntp55
Rp56
(dp57
g6
(g0
(g30
g2
Ntp58
Rp59
(dp60
g12
S'(nearIntegersPredicate, estab_name)'
p61
sg35
cdedupe.predicates
nearIntegersPredicate
p62
sg14
g15
sbg0
(g7
g2
Ntp63
Rp64
(dp65
g11
F0.6
sg12
S'(0.6, estab_name)'
p66
sg14
g15
sbtp67
sg12
V(SimplePredicate: (nearIntegersPredicate, estab_name), TfidfTextCanopyPredicate: (0.6, estab_name))
p68
sbg0
(g1
g2
Ntp69
Rp70
(dp71
g6
(g0
(g30
g2
Ntp72
Rp73
(dp74
g12
S'(commonTwoTokens, estab_name)'
p75
sg35
cdedupe.predicates
commonTwoTokens
p76
sg14
g15
sbg0
(g30
g2
Ntp77
Rp78
(dp79
g12
S'(twoGramFingerprint, estab_name)'
p80
sg35
cdedupe.predicates
twoGramFingerprint
p81
sg14
g15
sbtp82
sg12
V(SimplePredicate: (commonTwoTokens, estab_name), SimplePredicate: (twoGramFingerprint, estab_name))
p83
sbtp84
.(dp0
S'estab_name'
p1
(dp2
S'TfidfNGramCanopyPredicate'
p3
c__builtin__
set
p4
((lp5
Vge
p6
aVgc
p7
aVle
p8
aVlc
p9
aVla
p10
aVlo
p11
aVll
p12
aVtr
p13
aVts
p14
aVli
p15
aVth
p16
aVti
p17
aVte
p18
aVta
p19
aVdi
p20
aVde
p21
aVdu
p22
aVem
p23
aVel
p24
aVen
p25
aVee
p26
aVed
p27
aVea
p28
aVec
p29
aVet
p30
aVes
p31
aVer
p32
aVrt
p33
aVru
p34
aVrp
p35
aVrs
p36
aVry
p37
aVre
p38
aVra
p39
aVrc
p40
aVro
p41
aVri
p42
aVoo
p43
aVom
p44
aVol
p45
aVoi
p46
aVod
p47
aVou
p48
aVci
p49
aVch
p50
aVco
p51
aVca
p52
aVce
p53
aVct
p54
aVpr
p55
aVpa
p56
aVpe
p57
aVpo
p58
aVc.
p59
aVhi
p60
aVho
p61
aVha
p62
aVhe
p63
aVme
p64
aVma
p65
aVmi
p66
aVus
p67
aVur
p68
aVun
p69
aVmp
p70
aVuc
p71
aVac
p72
aVve
p73
aVai
p74
aVvi
p75
aVam
p76
aVal
p77
aVan
p78
aVar
p79
aVil
p80
aVio
p81
aVia
p82
aVic
p83
aVst
p84
aVie
p85
aVni
p86
aVna
p87
aVnc
p88
aVnd
p89
aVne
p90
aVng
p91
aVny
p92
aVns
p93
aVnt
p94
aVss
p95
aV,i
p96
aVsi
p97
aVso
p98
aVsc
p99
aVse
p100
atp101
Rp102
sS'TfidfTextCanopyPredicate'
p103
g4
((lp104
S'corp'
p105
aS'company'
p106
aS'construction'
p107
aS'co'
p108
aS'inc'
p109
atp110
Rp111
ss.